target datalayout = "e-m:e-p270:32:32-p271:32:32-p272:64:64-i64:64-i128:128-f80:128-n8:16:32:64-S128"
target triple = "x86_64-pc-linux-gnu"

%struct.grpc_slice = type { ptr, %"union.grpc_slice::grpc_slice_data" }
%"union.grpc_slice::grpc_slice_data" = type { %"struct.grpc_slice::grpc_slice_data::grpc_slice_refcounted", [8 x i8] }
%"struct.grpc_slice::grpc_slice_data::grpc_slice_refcounted" = type { i64, ptr }
%"struct.grpc_slice::grpc_slice_data::grpc_slice_inlined" = type { i8, [23 x i8] }

@.str.9 = private unnamed_addr constant [5 x i8] c"-bin\00", align 1

; Function Attrs: inlinehint mustprogress nounwind uwtable
define linkonce_odr noundef i32 @_Z25grpc_key_is_binary_headerPKhm(ptr noundef %0, i64 noundef %1) #8 comdat {
  %3 = alloca i32, align 4
  %4 = alloca ptr, align 8
  %5 = alloca i64, align 8
  store ptr %0, ptr %4, align 8, !tbaa !8
  store i64 %1, ptr %5, align 8, !tbaa !4
  %6 = load i64, ptr %5, align 8, !tbaa !4
  %7 = icmp ult i64 %6, 5
  br i1 %7, label %8, label %9

8:                                                ; preds = %2
  store i32 0, ptr %3, align 4
  br label %17

9:                                                ; preds = %2
  %10 = load ptr, ptr %4, align 8, !tbaa !8
  %11 = load i64, ptr %5, align 8, !tbaa !4
  %12 = getelementptr inbounds nuw i8, ptr %10, i64 %11
  %13 = getelementptr inbounds i8, ptr %12, i64 -4
  %14 = call i32 @memcmp(ptr noundef %13, ptr noundef @.str.9, i64 noundef 4) #15
  %15 = icmp eq i32 0, %14
  %16 = zext i1 %15 to i32
  store i32 %16, ptr %3, align 4
  br label %17

17:                                               ; preds = %9, %8
  %18 = load i32, ptr %3, align 4
  ret i32 %18
}

; Function Attrs: mustprogress uwtable
define noundef i32 @_Z30grpc_is_binary_header_internalRK10grpc_slice(ptr noundef nonnull align 8 dereferenceable(32) %0) #4 {
  %2 = alloca ptr, align 8
  store ptr %0, ptr %2, align 8, !tbaa !20
  %3 = load ptr, ptr %2, align 8, !tbaa !20
  %4 = getelementptr inbounds nuw %struct.grpc_slice, ptr %3, i32 0, i32 0
  %5 = load ptr, ptr %4, align 8, !tbaa !22
  %6 = icmp ne ptr %5, null
  br i1 %6, label %7, label %12

7:                                                ; preds = %1
  %8 = load ptr, ptr %2, align 8, !tbaa !20
  %9 = getelementptr inbounds nuw %struct.grpc_slice, ptr %8, i32 0, i32 1
  %10 = getelementptr inbounds nuw %"struct.grpc_slice::grpc_slice_data::grpc_slice_refcounted", ptr %9, i32 0, i32 1
  %11 = load ptr, ptr %10, align 8, !tbaa !19
  br label %17

12:                                               ; preds = %1
  %13 = load ptr, ptr %2, align 8, !tbaa !20
  %14 = getelementptr inbounds nuw %struct.grpc_slice, ptr %13, i32 0, i32 1
  %15 = getelementptr inbounds nuw %"struct.grpc_slice::grpc_slice_data::grpc_slice_inlined", ptr %14, i32 0, i32 1
  %16 = getelementptr inbounds [23 x i8], ptr %15, i64 0, i64 0
  br label %17

17:                                               ; preds = %12, %7
  %18 = phi ptr [ %11, %7 ], [ %16, %12 ]
  %19 = load ptr, ptr %2, align 8, !tbaa !20
  %20 = getelementptr inbounds nuw %struct.grpc_slice, ptr %19, i32 0, i32 0
  %21 = load ptr, ptr %20, align 8, !tbaa !22
  %22 = icmp ne ptr %21, null
  br i1 %22, label %23, label %28

23:                                               ; preds = %17
  %24 = load ptr, ptr %2, align 8, !tbaa !20
  %25 = getelementptr inbounds nuw %struct.grpc_slice, ptr %24, i32 0, i32 1
  %26 = getelementptr inbounds nuw %"struct.grpc_slice::grpc_slice_data::grpc_slice_refcounted", ptr %25, i32 0, i32 0
  %27 = load i64, ptr %26, align 8, !tbaa !19
  br label %34

28:                                               ; preds = %17
  %29 = load ptr, ptr %2, align 8, !tbaa !20
  %30 = getelementptr inbounds nuw %struct.grpc_slice, ptr %29, i32 0, i32 1
  %31 = getelementptr inbounds nuw %"struct.grpc_slice::grpc_slice_data::grpc_slice_inlined", ptr %30, i32 0, i32 0
  %32 = load i8, ptr %31, align 8, !tbaa !19
  %33 = zext i8 %32 to i64
  br label %34

34:                                               ; preds = %28, %23
  %35 = phi i64 [ %27, %23 ], [ %33, %28 ]
  %36 = call noundef i32 @_Z25grpc_key_is_binary_headerPKhm(ptr noundef %18, i64 noundef %35)
  ret i32 %36
}