; Function Attrs: mustprogress nofree nounwind willreturn memory(read, inaccessiblemem: none) uwtable
define noundef range(i32 0, 2) i32 @_Z30grpc_is_binary_header_internalRK10grpc_slice(ptr noundef nonnull readonly align 8 captures(none) dereferenceable(32) %0) local_unnamed_addr #6 {
  %2 = load ptr, ptr %0, align 8, !tbaa !8
  %.not = icmp eq ptr %2, null
  %3 = getelementptr inbounds nuw i8, ptr %0, i64 8
  %4 = load i64, ptr %3, align 8
  %5 = and i64 %4, 255
  %6 = select i1 %.not, i64 %5, i64 %4
  %7 = icmp ult i64 %6, 5
  br i1 %7, label %_Z25grpc_key_is_binary_headerPKhm.exit, label %8

8:                                                ; preds = %1
  %9 = getelementptr inbounds nuw i8, ptr %0, i64 9
  %10 = getelementptr inbounds nuw i8, ptr %0, i64 16
  %11 = load ptr, ptr %10, align 8
  %12 = select i1 %.not, ptr %9, ptr %11
  %13 = getelementptr inbounds nuw i8, ptr %12, i64 %6
  %14 = getelementptr inbounds i8, ptr %13, i64 -4
  %bcmp.i = tail call i32 @bcmp(ptr noundef nonnull dereferenceable(4) %14, ptr noundef nonnull dereferenceable(4) @.str.9, i64 4)
  %15 = icmp eq i32 %bcmp.i, 0
  %16 = zext i1 %15 to i32
  br label %_Z25grpc_key_is_binary_headerPKhm.exit

_Z25grpc_key_is_binary_headerPKhm.exit:           ; preds = %1, %8
  %.0.i = phi i32 [ %16, %8 ], [ 0, %1 ]
  ret i32 %.0.i
}